; Function Attrs: mustprogress nofree norecurse nosync nounwind willreturn memory(read, inaccessiblemem: none) uwtable
define noundef zeroext i1 @_ZNK10open_spiel9coin_game9CoinState10IsTerminalEv(ptr nocapture noundef nonnull readonly align 8 dereferenceable(288) %0) unnamed_addr #7 align 2 {
  %2 = getelementptr inbounds nuw i8, ptr %0, i64 188
  %3 = load i32, ptr %2, align 4
  %4 = getelementptr inbounds nuw i8, ptr %0, i64 64
  %5 = load ptr, ptr %4, align 8
  %6 = getelementptr inbounds nuw i8, ptr %5, i64 292
  %7 = load i32, ptr %6, align 4
  %8 = icmp sge i32 %3, %7
  ret i1 %8
}